; Function Attrs: nofree nounwind uwtable
define internal void @fmt_lat_lon(ptr noundef writeonly captures(none) %0, i32 noundef %1) #1 {
  %3 = icmp sgt i32 %1, -1
  br i1 %3, label %4, label %8

4:                                                ; preds = %2
  %5 = udiv i32 %1, 10000000
  %6 = urem i32 %1, 10000000
  %7 = tail call i32 (ptr, i64, ptr, ...) @snprintf(ptr noundef nonnull dereferenceable(1) %0, i64 noundef 240, ptr noundef nonnull @.str.691, i32 noundef %5, i32 noundef %6, ptr noundef nonnull @.str.692) #5
  br label %13

8:                                                ; preds = %2
  %9 = sub i32 0, %1
  %10 = sdiv i32 %9, 10000000
  %11 = srem i32 %9, 10000000
  %12 = tail call i32 (ptr, i64, ptr, ...) @snprintf(ptr noundef nonnull dereferenceable(1) %0, i64 noundef 240, ptr noundef nonnull @.str.693, i32 noundef %10, i32 noundef %11, ptr noundef nonnull @.str.692) #5
  br label %13

13:                                               ; preds = %8, %4
  ret void
}